target datalayout = "e-m:e-p270:32:32-p271:32:32-p272:64:64-i64:64-i128:128-f80:128-n8:16:32:64-S128"
target triple = "x86_64-pc-linux-gnu"

; Function Attrs: inlinehint mustprogress nounwind uwtable
define internal noundef i32 @_ZL9CV_FOURCCcccc(i8 noundef signext %0, i8 noundef signext %1, i8 noundef signext %2, i8 noundef signext %3) #4 {
  %5 = alloca i8, align 1
  %6 = alloca i8, align 1
  %7 = alloca i8, align 1
  %8 = alloca i8, align 1
  store i8 %0, ptr %5, align 1, !tbaa !7
  store i8 %1, ptr %6, align 1, !tbaa !7
  store i8 %2, ptr %7, align 1, !tbaa !7
  store i8 %3, ptr %8, align 1, !tbaa !7
  %9 = load i8, ptr %5, align 1, !tbaa !7
  %10 = sext i8 %9 to i32
  %11 = and i32 %10, 255
  %12 = load i8, ptr %6, align 1, !tbaa !7
  %13 = sext i8 %12 to i32
  %14 = and i32 %13, 255
  %15 = shl i32 %14, 8
  %16 = add nsw i32 %11, %15
  %17 = load i8, ptr %7, align 1, !tbaa !7
  %18 = sext i8 %17 to i32
  %19 = and i32 %18, 255
  %20 = shl i32 %19, 16
  %21 = add nsw i32 %16, %20
  %22 = load i8, ptr %8, align 1, !tbaa !7
  %23 = sext i8 %22 to i32
  %24 = and i32 %23, 255
  %25 = shl i32 %24, 24
  %26 = add nsw i32 %21, %25
  ret i32 %26
}

; Function Attrs: mustprogress uwtable
define noundef i32 @_ZN2cv17AVIWriteContainer11getAVIIndexEiNS_10StreamTypeE(ptr noundef nonnull align 8 dereferenceable(136) %0, i32 noundef %1, i32 noundef %2) #6 align 2 {
  %4 = alloca i32, align 4
  %5 = alloca ptr, align 8
  %6 = alloca i32, align 4
  %7 = alloca i32, align 4
  %8 = alloca [2 x i8], align 1
  %9 = alloca i32, align 4
  store ptr %0, ptr %5, align 8, !tbaa !175
  store i32 %1, ptr %6, align 4, !tbaa !3
  store i32 %2, ptr %7, align 4, !tbaa !204
  call void @llvm.lifetime.start.p0(i64 2, ptr %8) #3
  %10 = load i32, ptr %6, align 4, !tbaa !3
  %11 = sdiv i32 %10, 10
  %12 = trunc i32 %11 to i8
  %13 = sext i8 %12 to i32
  %14 = add nsw i32 48, %13
  %15 = trunc i32 %14 to i8
  %16 = getelementptr inbounds [2 x i8], ptr %8, i64 0, i64 0
  store i8 %15, ptr %16, align 1, !tbaa !7
  %17 = load i32, ptr %6, align 4, !tbaa !3
  %18 = srem i32 %17, 10
  %19 = trunc i32 %18 to i8
  %20 = sext i8 %19 to i32
  %21 = add nsw i32 48, %20
  %22 = trunc i32 %21 to i8
  %23 = getelementptr inbounds [2 x i8], ptr %8, i64 0, i64 1
  store i8 %22, ptr %23, align 1, !tbaa !7
  %24 = load i32, ptr %7, align 4, !tbaa !204
  switch i32 %24, label %49 [
    i32 0, label %25
    i32 1, label %31
    i32 2, label %37
    i32 3, label %43
  ]

25:                                               ; preds = %3
  %26 = getelementptr inbounds [2 x i8], ptr %8, i64 0, i64 0
  %27 = load i8, ptr %26, align 1, !tbaa !7
  %28 = getelementptr inbounds [2 x i8], ptr %8, i64 0, i64 1
  %29 = load i8, ptr %28, align 1, !tbaa !7
  %30 = call noundef i32 @_ZL9CV_FOURCCcccc(i8 noundef signext %27, i8 noundef signext %29, i8 noundef signext 100, i8 noundef signext 98)
  store i32 %30, ptr %4, align 4
  store i32 1, ptr %9, align 4
  br label %55

31:                                               ; preds = %3
  %32 = getelementptr inbounds [2 x i8], ptr %8, i64 0, i64 0
  %33 = load i8, ptr %32, align 1, !tbaa !7
  %34 = getelementptr inbounds [2 x i8], ptr %8, i64 0, i64 1
  %35 = load i8, ptr %34, align 1, !tbaa !7
  %36 = call noundef i32 @_ZL9CV_FOURCCcccc(i8 noundef signext %33, i8 noundef signext %35, i8 noundef signext 100, i8 noundef signext 99)
  store i32 %36, ptr %4, align 4
  store i32 1, ptr %9, align 4
  br label %55

37:                                               ; preds = %3
  %38 = getelementptr inbounds [2 x i8], ptr %8, i64 0, i64 0
  %39 = load i8, ptr %38, align 1, !tbaa !7
  %40 = getelementptr inbounds [2 x i8], ptr %8, i64 0, i64 1
  %41 = load i8, ptr %40, align 1, !tbaa !7
  %42 = call noundef i32 @_ZL9CV_FOURCCcccc(i8 noundef signext %39, i8 noundef signext %41, i8 noundef signext 112, i8 noundef signext 99)
  store i32 %42, ptr %4, align 4
  store i32 1, ptr %9, align 4
  br label %55

43:                                               ; preds = %3
  %44 = getelementptr inbounds [2 x i8], ptr %8, i64 0, i64 0
  %45 = load i8, ptr %44, align 1, !tbaa !7
  %46 = getelementptr inbounds [2 x i8], ptr %8, i64 0, i64 1
  %47 = load i8, ptr %46, align 1, !tbaa !7
  %48 = call noundef i32 @_ZL9CV_FOURCCcccc(i8 noundef signext %45, i8 noundef signext %47, i8 noundef signext 119, i8 noundef signext 98)
  store i32 %48, ptr %4, align 4
  store i32 1, ptr %9, align 4
  br label %55

49:                                               ; preds = %3
  %50 = getelementptr inbounds [2 x i8], ptr %8, i64 0, i64 0
  %51 = load i8, ptr %50, align 1, !tbaa !7
  %52 = getelementptr inbounds [2 x i8], ptr %8, i64 0, i64 1
  %53 = load i8, ptr %52, align 1, !tbaa !7
  %54 = call noundef i32 @_ZL9CV_FOURCCcccc(i8 noundef signext %51, i8 noundef signext %53, i8 noundef signext 100, i8 noundef signext 98)
  store i32 %54, ptr %4, align 4
  store i32 1, ptr %9, align 4
  br label %55

55:                                               ; preds = %49, %43, %37, %31, %25
  call void @llvm.lifetime.end.p0(i64 2, ptr %8) #3
  %56 = load i32, ptr %4, align 4
  ret i32 %56
}