; Function Attrs: mustprogress nofree norecurse nosync nounwind willreturn memory(none) uwtable
define noundef range(i32 1650728960, 1668300800) i32 @_ZN2cv17AVIWriteContainer11getAVIIndexEiNS_10StreamTypeE(ptr noundef nonnull readnone align 8 captures(none) dereferenceable(136) %0, i32 noundef %1, i32 noundef %2) local_unnamed_addr #15 align 2 {
  %switch.tableidx = add i32 %2, -1
  %4 = icmp ult i32 %switch.tableidx, 3
  br i1 %4, label %switch.lookup, label %6

switch.lookup:                                    ; preds = %3
  %5 = zext nneg i32 %switch.tableidx to i64
  %switch.gep = getelementptr inbounds nuw [3 x i32], ptr @switch.table._ZN2cv17AVIWriteContainer10writeIndexEiNS_10StreamTypeE, i64 0, i64 %5
  %switch.load = load i32, ptr %switch.gep, align 4
  br label %6

6:                                                ; preds = %3, %switch.lookup
  %.sink = phi i32 [ %switch.load, %switch.lookup ], [ 1650720768, %3 ]
  %7 = srem i32 %1, 10
  %8 = shl nsw i32 %7, 8
  %9 = add nsw i32 %8, 12288
  %10 = and i32 %9, 65280
  %11 = sdiv i32 %1, 10
  %12 = add nsw i32 %11, 48
  %13 = and i32 %12, 255
  %14 = or disjoint i32 %10, %13
  %15 = or disjoint i32 %14, %.sink
  ret i32 %15
}